; Function Attrs: mustprogress uwtable
define hidden noundef double @_ZN2cv3dnn14getWeightScaleERKNS_3MatE(ptr noundef nonnull align 8 dereferenceable(96) %0) local_unnamed_addr #3 personality ptr @__gxx_personality_v0 {
  %2 = alloca double, align 8
  %3 = alloca double, align 8
  %4 = alloca %"class.cv::_InputArray", align 8
  %5 = getelementptr inbounds i8, ptr %4, i64 16
  store i32 0, ptr %5, align 8
  %6 = getelementptr inbounds i8, ptr %4, i64 20
  store i32 0, ptr %6, align 4
  store i32 16842752, ptr %4, align 8
  %7 = getelementptr inbounds i8, ptr %4, i64 8
  store ptr %0, ptr %7, align 8
  %8 = tail call noundef nonnull align 8 dereferenceable(24) ptr @_ZN2cv7noArrayEv()
  call void @_ZN2cv9minMaxIdxERKNS_11_InputArrayEPdS3_PiS4_S2_(ptr noundef nonnull align 8 dereferenceable(24) %4, ptr noundef nonnull %2, ptr noundef nonnull %3, ptr noundef null, ptr noundef null, ptr noundef nonnull align 8 dereferenceable(24) %8)
  %9 = load double, ptr %2, align 8
  %10 = fcmp ogt double %9, 0.000000e+00
  %.sroa.speculated9 = select i1 %10, double 0.000000e+00, double %9
  %11 = load double, ptr %3, align 8
  %12 = fcmp olt double %11, 0.000000e+00
  %.sroa.speculated5 = select i1 %12, double 0.000000e+00, double %11
  %13 = fcmp oeq double %.sroa.speculated5, %.sroa.speculated9
  br i1 %13, label %18, label %14

14:                                               ; preds = %1
  %15 = fneg double %.sroa.speculated9
  %16 = fcmp ogt double %.sroa.speculated5, %15
  %.sroa.speculated = select i1 %16, double %.sroa.speculated5, double %15
  %17 = fdiv double %.sroa.speculated, 1.270000e+02
  br label %18

18:                                               ; preds = %1, %14
  %19 = phi double [ %17, %14 ], [ 1.000000e+00, %1 ]
  ret double %19
}